; Function Attrs: nounwind uwtable
define internal ptr @sm_get___isabstractmethod__(ptr noundef readonly captures(none) %0, ptr readnone captures(none) %1) #0 {
  %3 = getelementptr inbounds nuw i8, ptr %0, i64 16
  %4 = load ptr, ptr %3, align 8, !tbaa !156
  %5 = tail call i32 @_PyObject_IsAbstract(ptr noundef %4) #8
  %switch.selectcmp = icmp eq i32 %5, 0
  %switch.select = select i1 %switch.selectcmp, ptr @_Py_FalseStruct, ptr @_Py_TrueStruct
  %switch.selectcmp5 = icmp eq i32 %5, -1
  %switch.select6 = select i1 %switch.selectcmp5, ptr null, ptr %switch.select
  ret ptr %switch.select6
}